target datalayout = "e-m:e-p270:32:32-p271:32:32-p272:64:64-i64:64-i128:128-f80:128-n8:16:32:64-S128"
target triple = "x86_64-pc-linux-gnu"

@mdata_used = internal global i8 0, align 1
@mdata = internal global ptr null, align 8

; Function Attrs: nounwind uwtable
define dso_local void @php_pcre_free_match_data(ptr noundef %0) #0 {
  %2 = alloca ptr, align 8
  store ptr %0, ptr %2, align 8, !tbaa !73
  %3 = load ptr, ptr %2, align 8, !tbaa !73
  %4 = load ptr, ptr @mdata, align 8, !tbaa !73
  %5 = icmp ne ptr %3, %4
  %6 = xor i1 %5, true
  %7 = xor i1 %6, true
  %8 = zext i1 %7 to i32
  %9 = sext i32 %8 to i64
  %10 = call i64 @llvm.expect.i64(i64 %9, i64 0)
  %11 = icmp ne i64 %10, 0
  br i1 %11, label %12, label %14

12:                                               ; preds = %1
  %13 = load ptr, ptr %2, align 8, !tbaa !73
  call void @php_pcre2_match_data_free(ptr noundef %13)
  br label %15

14:                                               ; preds = %1
  store i8 0, ptr @mdata_used, align 1, !tbaa !9
  br label %15

15:                                               ; preds = %14, %12
  ret void
}