; Function Attrs: nounwind uwtable
define dso_local void @php_pcre_free_match_data(ptr noundef %0) local_unnamed_addr #0 {
  %2 = load ptr, ptr @mdata, align 8, !tbaa !66
  %.not = icmp eq ptr %0, %2
  br i1 %.not, label %4, label %3, !prof !55

3:                                                ; preds = %1
  tail call void @php_pcre2_match_data_free(ptr noundef %0) #24
  br label %5

4:                                                ; preds = %1
  store i1 false, ptr @mdata_used, align 1
  br label %5

5:                                                ; preds = %4, %3
  ret void
}